; Function Attrs: nounwind uwtable
define ptr @l_Lean_Linter_MissingDocs_initFn____x40_Lean_Linter_MissingDocs___hyg_802____lambda__1(ptr noundef %0, ptr noundef %1, ptr noundef %2, ptr readnone captures(none) %3, ptr noundef %4, ptr noundef %5, ptr noundef %6) local_unnamed_addr #0 {
  %8 = tail call ptr @l_Lean_ConstantInfo_type(ptr noundef %0) #5
  %9 = load ptr, ptr @l_Lean_Linter_MissingDocs_initFn____x40_Lean_Linter_MissingDocs___hyg_802____lambda__1___closed__2, align 8, !tbaa !4
  %10 = tail call zeroext i8 @lean_expr_eqv(ptr noundef %8, ptr noundef %9) #5
  %11 = ptrtoint ptr %8 to i64
  %12 = and i64 %11, 1
  %.not = icmp eq i64 %12, 0
  br i1 %.not, label %13, label %lean_dec.exit

13:                                               ; preds = %7
  %14 = load i32, ptr %8, align 4, !tbaa !8
  %15 = icmp sgt i32 %14, 1
  br i1 %15, label %16, label %18, !prof !11

16:                                               ; preds = %13
  %17 = add nsw i32 %14, -1
  store i32 %17, ptr %8, align 4, !tbaa !8
  br label %lean_dec.exit

18:                                               ; preds = %13
  %.not.i = icmp eq i32 %14, 0
  br i1 %.not.i, label %lean_dec.exit, label %19

19:                                               ; preds = %18
  tail call void @lean_dec_ref_cold(ptr noundef nonnull %8) #5
  br label %lean_dec.exit

lean_dec.exit:                                    ; preds = %19, %18, %16, %7
  %20 = tail call ptr @l___private_Lean_ToExpr_0__Lean_Name_toExprAux(ptr noundef %1) #5
  %21 = icmp eq i8 %10, 0
  %22 = ptrtoint ptr %2 to i64
  %23 = and i64 %22, 1
  %.not38 = icmp eq i64 %23, 0
  br i1 %21, label %24, label %32

24:                                               ; preds = %lean_dec.exit
  br i1 %.not38, label %25, label %lean_inc.exit32

25:                                               ; preds = %24
  %.val.i = load i32, ptr %2, align 4, !tbaa !8
  %26 = icmp sgt i32 %.val.i, 0
  br i1 %26, label %27, label %29, !prof !11

27:                                               ; preds = %25
  %28 = add nuw i32 %.val.i, 1
  store i32 %28, ptr %2, align 4, !tbaa !8
  br label %lean_inc.exit32

29:                                               ; preds = %25
  %.not.i33 = icmp eq i32 %.val.i, 0
  br i1 %.not.i33, label %lean_inc.exit32, label %30

30:                                               ; preds = %29
  tail call void @lean_inc_ref_cold(ptr noundef nonnull %2) #5
  br label %lean_inc.exit32

lean_inc.exit32:                                  ; preds = %30, %29, %27, %24
  %31 = tail call ptr @l_Lean_Expr_const___override(ptr noundef %2, ptr noundef nonnull inttoptr (i64 1 to ptr)) #5
  br label %42

32:                                               ; preds = %lean_dec.exit
  br i1 %.not38, label %33, label %lean_inc.exit

33:                                               ; preds = %32
  %.val.i34 = load i32, ptr %2, align 4, !tbaa !8
  %34 = icmp sgt i32 %.val.i34, 0
  br i1 %34, label %35, label %37, !prof !11

35:                                               ; preds = %33
  %36 = add nuw i32 %.val.i34, 1
  store i32 %36, ptr %2, align 4, !tbaa !8
  br label %lean_inc.exit

37:                                               ; preds = %33
  %.not.i35 = icmp eq i32 %.val.i34, 0
  br i1 %.not.i35, label %lean_inc.exit, label %38

38:                                               ; preds = %37
  tail call void @lean_inc_ref_cold(ptr noundef nonnull %2) #5
  br label %lean_inc.exit

lean_inc.exit:                                    ; preds = %38, %37, %35, %32
  %39 = tail call ptr @l_Lean_Expr_const___override(ptr noundef %2, ptr noundef nonnull inttoptr (i64 1 to ptr)) #5
  %40 = load ptr, ptr @l_Lean_Linter_MissingDocs_initFn____x40_Lean_Linter_MissingDocs___hyg_802____lambda__1___closed__8, align 8, !tbaa !4
  %41 = tail call ptr @l_Lean_Expr_app___override(ptr noundef %40, ptr noundef %39) #5
  br label %42

42:                                               ; preds = %lean_inc.exit, %lean_inc.exit32
  %.sink40 = phi ptr [ %41, %lean_inc.exit ], [ %31, %lean_inc.exit32 ]
  %43 = load ptr, ptr @l_Lean_Linter_MissingDocs_initFn____x40_Lean_Linter_MissingDocs___hyg_802____lambda__1___closed__5, align 8, !tbaa !4
  %44 = tail call ptr @l_Lean_mkAppB(ptr noundef %43, ptr noundef %20, ptr noundef %.sink40) #5
  %45 = tail call ptr @l_Lean_declareBuiltin(ptr noundef %2, ptr noundef %44, ptr noundef %4, ptr noundef %5, ptr noundef %6) #5
  ret ptr %45
}